; ModuleID = '1/2142.c'
source_filename = "1/2142.c"
target datalayout = "e-m:e-p270:32:32-p271:32:32-p272:64:64-i64:64-f80:128-n8:16:32:64-S128"
target triple = "x86_64-pc-linux-gnu"

@.str = private unnamed_addr constant [3 x i8] c"%d\00", align 1
@.str.1 = private unnamed_addr constant [4 x i8] c"%d\0A\00", align 1

; Function Attrs: noinline nounwind uwtable
define dso_local i32 @f(i32 %0, i32 %1) #0 {
  %3 = alloca i32, align 4
  %4 = alloca i32, align 4
  %5 = alloca i32, align 4
  %6 = alloca i32, align 4
  %7 = alloca i32, align 4
  %8 = alloca i32, align 4
  %9 = alloca i32, align 4
  store i32 %0, i32* %4, align 4
  store i32 %1, i32* %5, align 4
  %10 = load i32, i32* %4, align 4
  %11 = load i32, i32* %5, align 4
  %12 = icmp slt i32 %10, %11
  br i1 %12, label %13, label %64

13:                                               ; preds = %2
  store i32 0, i32* %7, align 4
  store i32 0, i32* %9, align 4
  store i32 0, i32* %8, align 4
  store i32 2, i32* %6, align 4
  br label %14

14:                                               ; preds = %28, %13
  %15 = load i32, i32* %6, align 4
  %16 = load i32, i32* %5, align 4
  %17 = sdiv i32 %16, 2
  %18 = icmp sle i32 %15, %17
  br i1 %18, label %19, label %31

19:                                               ; preds = %14
  %20 = load i32, i32* %5, align 4
  %21 = load i32, i32* %6, align 4
  %22 = srem i32 %20, %21
  %23 = icmp eq i32 %22, 0
  br i1 %23, label %24, label %27

24:                                               ; preds = %19
  %25 = load i32, i32* %7, align 4
  %26 = add nsw i32 %25, 1
  store i32 %26, i32* %7, align 4
  br label %27

27:                                               ; preds = %24, %19
  br label %28

28:                                               ; preds = %27
  %29 = load i32, i32* %6, align 4
  %30 = add nsw i32 %29, 1
  store i32 %30, i32* %6, align 4
  br label %14

31:                                               ; preds = %14
  %32 = load i32, i32* %7, align 4
  %33 = icmp eq i32 %32, 0
  br i1 %33, label %34, label %35

34:                                               ; preds = %31
  store i32 1, i32* %3, align 4
  br label %70

35:                                               ; preds = %31
  %36 = load i32, i32* %4, align 4
  store i32 %36, i32* %6, align 4
  br label %37

37:                                               ; preds = %58, %35
  %38 = load i32, i32* %6, align 4
  %39 = sitofp i32 %38 to double
  %40 = load i32, i32* %5, align 4
  %41 = sitofp i32 %40 to double
  %42 = call double @sqrt(double %41) #3
  %43 = fcmp ole double %39, %42
  br i1 %43, label %44, label %61

44:                                               ; preds = %37
  %45 = load i32, i32* %5, align 4
  %46 = load i32, i32* %6, align 4
  %47 = srem i32 %45, %46
  %48 = icmp eq i32 %47, 0
  br i1 %48, label %49, label %57

49:                                               ; preds = %44
  %50 = load i32, i32* %9, align 4
  %51 = load i32, i32* %6, align 4
  %52 = load i32, i32* %5, align 4
  %53 = load i32, i32* %6, align 4
  %54 = sdiv i32 %52, %53
  %55 = call i32 @f(i32 %51, i32 %54)
  %56 = add nsw i32 %50, %55
  store i32 %56, i32* %9, align 4
  br label %57

57:                                               ; preds = %49, %44
  br label %58

58:                                               ; preds = %57
  %59 = load i32, i32* %6, align 4
  %60 = add nsw i32 %59, 1
  store i32 %60, i32* %6, align 4
  br label %37

61:                                               ; preds = %37
  %62 = load i32, i32* %9, align 4
  %63 = add nsw i32 %62, 1
  store i32 %63, i32* %3, align 4
  br label %70

64:                                               ; preds = %2
  %65 = load i32, i32* %4, align 4
  %66 = load i32, i32* %5, align 4
  %67 = icmp eq i32 %65, %66
  br i1 %67, label %68, label %69

68:                                               ; preds = %64
  store i32 1, i32* %3, align 4
  br label %70

69:                                               ; preds = %64
  store i32 0, i32* %3, align 4
  br label %70

70:                                               ; preds = %69, %68, %61, %34
  %71 = load i32, i32* %3, align 4
  ret i32 %71
}

; Function Attrs: nounwind
declare dso_local double @sqrt(double) #1

; Function Attrs: noinline nounwind uwtable
define dso_local i32 @main() #0 {
  %1 = alloca i32, align 4
  %2 = alloca i32, align 4
  %3 = alloca i32, align 4
  %4 = alloca i32, align 4
  %5 = alloca i32, align 4
  store i32 0, i32* %1, align 4
  %6 = call i32 (i8*, ...) @__isoc99_scanf(i8* getelementptr inbounds ([3 x i8], [3 x i8]* @.str, i64 0, i64 0), i32* %2)
  store i32 0, i32* %3, align 4
  br label %7

7:                                                ; preds = %17, %0
  %8 = load i32, i32* %3, align 4
  %9 = load i32, i32* %2, align 4
  %10 = icmp slt i32 %8, %9
  br i1 %10, label %11, label %20

11:                                               ; preds = %7
  %12 = call i32 (i8*, ...) @__isoc99_scanf(i8* getelementptr inbounds ([3 x i8], [3 x i8]* @.str, i64 0, i64 0), i32* %4)
  %13 = load i32, i32* %4, align 4
  %14 = call i32 @f(i32 2, i32 %13)
  store i32 %14, i32* %5, align 4
  %15 = load i32, i32* %5, align 4
  %16 = call i32 (i8*, ...) @printf(i8* getelementptr inbounds ([4 x i8], [4 x i8]* @.str.1, i64 0, i64 0), i32 %15)
  br label %17

17:                                               ; preds = %11
  %18 = load i32, i32* %3, align 4
  %19 = add nsw i32 %18, 1
  store i32 %19, i32* %3, align 4
  br label %7

20:                                               ; preds = %7
  %21 = load i32, i32* %1, align 4
  ret i32 %21
}

declare dso_local i32 @__isoc99_scanf(i8*, ...) #2

declare dso_local i32 @printf(i8*, ...) #2


!llvm.module.flags = !{!0}
!llvm.ident = !{!1}

!0 = !{i32 1, !"wchar_size", i32 4}
!1 = !{!"clang version 10.0.0-4ubuntu1 "}
